target datalayout = "e-m:e-p270:32:32-p271:32:32-p272:64:64-i64:64-i128:128-f80:128-n8:16:32:64-S128"
target triple = "x86_64-unknown-linux-gnu"

%struct.Node = type { i32, ptr, ptr, ptr, ptr, ptr, ptr, ptr, ptr, ptr, ptr, ptr, ptr, ptr, ptr, ptr, ptr, i8, ptr, ptr, ptr, ptr, ptr, ptr, i64, i64, ptr, ptr, ptr, ptr, ptr, ptr, ptr, i64, x86_fp80 }
%struct.Type = type { i32, i32, i32, i8, i8, ptr, ptr, ptr, ptr, i32, ptr, ptr, ptr, i8, i8, ptr, ptr, i8, ptr }

@.str.129 = private unnamed_addr constant [17 x i8] c"invalid operands\00", align 1
@ty_long = external global ptr, align 8

; Function Attrs: nounwind uwtable
define internal ptr @new_node(i32 noundef %kind, ptr noundef %tok) #0 {
entry:
  %kind.addr = alloca i32, align 4
  %tok.addr = alloca ptr, align 8
  %node = alloca ptr, align 8
  store i32 %kind, ptr %kind.addr, align 4
  store ptr %tok, ptr %tok.addr, align 8
  %call = call noalias ptr @calloc(i64 noundef 1, i64 noundef 288) #8
  store ptr %call, ptr %node, align 8
  %0 = load i32, ptr %kind.addr, align 4
  %1 = load ptr, ptr %node, align 8
  %kind1 = getelementptr inbounds %struct.Node, ptr %1, i32 0, i32 0
  store i32 %0, ptr %kind1, align 16
  %2 = load ptr, ptr %tok.addr, align 8
  %3 = load ptr, ptr %node, align 8
  %tok2 = getelementptr inbounds %struct.Node, ptr %3, i32 0, i32 3
  store ptr %2, ptr %tok2, align 8
  %4 = load ptr, ptr %node, align 8
  ret ptr %4
}

; Function Attrs: nounwind uwtable
define internal ptr @new_num(i64 noundef %val, ptr noundef %tok) #0 {
entry:
  %val.addr = alloca i64, align 8
  %tok.addr = alloca ptr, align 8
  %node = alloca ptr, align 8
  store i64 %val, ptr %val.addr, align 8
  store ptr %tok, ptr %tok.addr, align 8
  %0 = load ptr, ptr %tok.addr, align 8
  %call = call ptr @new_node(i32 noundef 42, ptr noundef %0)
  store ptr %call, ptr %node, align 8
  %1 = load i64, ptr %val.addr, align 8
  %2 = load ptr, ptr %node, align 8
  %val1 = getelementptr inbounds %struct.Node, ptr %2, i32 0, i32 33
  store i64 %1, ptr %val1, align 8
  %3 = load ptr, ptr %node, align 8
  ret ptr %3
}

; Function Attrs: nounwind uwtable
define internal ptr @new_long(i64 noundef %val, ptr noundef %tok) #0 {
entry:
  %val.addr = alloca i64, align 8
  %tok.addr = alloca ptr, align 8
  %node = alloca ptr, align 8
  store i64 %val, ptr %val.addr, align 8
  store ptr %tok, ptr %tok.addr, align 8
  %0 = load ptr, ptr %tok.addr, align 8
  %call = call ptr @new_node(i32 noundef 42, ptr noundef %0)
  store ptr %call, ptr %node, align 8
  %1 = load i64, ptr %val.addr, align 8
  %2 = load ptr, ptr %node, align 8
  %val1 = getelementptr inbounds %struct.Node, ptr %2, i32 0, i32 33
  store i64 %1, ptr %val1, align 8
  %3 = load ptr, ptr @ty_long, align 8
  %4 = load ptr, ptr %node, align 8
  %ty = getelementptr inbounds %struct.Node, ptr %4, i32 0, i32 2
  store ptr %3, ptr %ty, align 16
  %5 = load ptr, ptr %node, align 8
  ret ptr %5
}

; Function Attrs: nounwind uwtable
define internal ptr @new_var_node(ptr noundef %var, ptr noundef %tok) #0 {
entry:
  %var.addr = alloca ptr, align 8
  %tok.addr = alloca ptr, align 8
  %node = alloca ptr, align 8
  store ptr %var, ptr %var.addr, align 8
  store ptr %tok, ptr %tok.addr, align 8
  %0 = load ptr, ptr %tok.addr, align 8
  %call = call ptr @new_node(i32 noundef 40, ptr noundef %0)
  store ptr %call, ptr %node, align 8
  %1 = load ptr, ptr %var.addr, align 8
  %2 = load ptr, ptr %node, align 8
  %var1 = getelementptr inbounds %struct.Node, ptr %2, i32 0, i32 32
  store ptr %1, ptr %var1, align 16
  %3 = load ptr, ptr %node, align 8
  ret ptr %3
}

; Function Attrs: nounwind uwtable
define internal ptr @new_binary(i32 noundef %kind, ptr noundef %lhs, ptr noundef %rhs, ptr noundef %tok) #0 {
entry:
  %kind.addr = alloca i32, align 4
  %lhs.addr = alloca ptr, align 8
  %rhs.addr = alloca ptr, align 8
  %tok.addr = alloca ptr, align 8
  %node = alloca ptr, align 8
  store i32 %kind, ptr %kind.addr, align 4
  store ptr %lhs, ptr %lhs.addr, align 8
  store ptr %rhs, ptr %rhs.addr, align 8
  store ptr %tok, ptr %tok.addr, align 8
  %0 = load i32, ptr %kind.addr, align 4
  %1 = load ptr, ptr %tok.addr, align 8
  %call = call ptr @new_node(i32 noundef %0, ptr noundef %1)
  store ptr %call, ptr %node, align 8
  %2 = load ptr, ptr %lhs.addr, align 8
  %3 = load ptr, ptr %node, align 8
  %lhs1 = getelementptr inbounds %struct.Node, ptr %3, i32 0, i32 4
  store ptr %2, ptr %lhs1, align 16
  %4 = load ptr, ptr %rhs.addr, align 8
  %5 = load ptr, ptr %node, align 8
  %rhs2 = getelementptr inbounds %struct.Node, ptr %5, i32 0, i32 5
  store ptr %4, ptr %rhs2, align 8
  %6 = load ptr, ptr %node, align 8
  ret ptr %6
}

; Function Attrs: nounwind uwtable
define internal ptr @new_sub(ptr noundef %lhs, ptr noundef %rhs, ptr noundef %tok) #0 {
entry:
  %retval = alloca ptr, align 8
  %lhs.addr = alloca ptr, align 8
  %rhs.addr = alloca ptr, align 8
  %tok.addr = alloca ptr, align 8
  %node = alloca ptr, align 8
  %node24 = alloca ptr, align 8
  %node37 = alloca ptr, align 8
  store ptr %lhs, ptr %lhs.addr, align 8
  store ptr %rhs, ptr %rhs.addr, align 8
  store ptr %tok, ptr %tok.addr, align 8
  %0 = load ptr, ptr %lhs.addr, align 8
  call void @add_type(ptr noundef %0)
  %1 = load ptr, ptr %rhs.addr, align 8
  call void @add_type(ptr noundef %1)
  %2 = load ptr, ptr %lhs.addr, align 8
  %ty = getelementptr inbounds %struct.Node, ptr %2, i32 0, i32 2
  %3 = load ptr, ptr %ty, align 16
  %call = call zeroext i1 @is_numeric(ptr noundef %3)
  br i1 %call, label %land.lhs.true, label %if.end

land.lhs.true:                                    ; preds = %entry
  %4 = load ptr, ptr %rhs.addr, align 8
  %ty1 = getelementptr inbounds %struct.Node, ptr %4, i32 0, i32 2
  %5 = load ptr, ptr %ty1, align 16
  %call2 = call zeroext i1 @is_numeric(ptr noundef %5)
  br i1 %call2, label %if.then, label %if.end

if.then:                                          ; preds = %land.lhs.true
  %6 = load ptr, ptr %lhs.addr, align 8
  %7 = load ptr, ptr %rhs.addr, align 8
  %8 = load ptr, ptr %tok.addr, align 8
  %call3 = call ptr @new_binary(i32 noundef 2, ptr noundef %6, ptr noundef %7, ptr noundef %8)
  store ptr %call3, ptr %retval, align 8
  br label %return

if.end:                                           ; preds = %land.lhs.true, %entry
  %9 = load ptr, ptr %lhs.addr, align 8
  %ty4 = getelementptr inbounds %struct.Node, ptr %9, i32 0, i32 2
  %10 = load ptr, ptr %ty4, align 16
  %base = getelementptr inbounds %struct.Type, ptr %10, i32 0, i32 6
  %11 = load ptr, ptr %base, align 8
  %kind = getelementptr inbounds %struct.Type, ptr %11, i32 0, i32 0
  %12 = load i32, ptr %kind, align 8
  %cmp = icmp eq i32 %12, 13
  br i1 %cmp, label %if.then5, label %if.end13

if.then5:                                         ; preds = %if.end
  %13 = load ptr, ptr %rhs.addr, align 8
  %14 = load ptr, ptr %lhs.addr, align 8
  %ty6 = getelementptr inbounds %struct.Node, ptr %14, i32 0, i32 2
  %15 = load ptr, ptr %ty6, align 16
  %base7 = getelementptr inbounds %struct.Type, ptr %15, i32 0, i32 6
  %16 = load ptr, ptr %base7, align 8
  %vla_size = getelementptr inbounds %struct.Type, ptr %16, i32 0, i32 11
  %17 = load ptr, ptr %vla_size, align 8
  %18 = load ptr, ptr %tok.addr, align 8
  %call8 = call ptr @new_var_node(ptr noundef %17, ptr noundef %18)
  %19 = load ptr, ptr %tok.addr, align 8
  %call9 = call ptr @new_binary(i32 noundef 3, ptr noundef %13, ptr noundef %call8, ptr noundef %19)
  store ptr %call9, ptr %rhs.addr, align 8
  %20 = load ptr, ptr %rhs.addr, align 8
  call void @add_type(ptr noundef %20)
  %21 = load ptr, ptr %lhs.addr, align 8
  %22 = load ptr, ptr %rhs.addr, align 8
  %23 = load ptr, ptr %tok.addr, align 8
  %call10 = call ptr @new_binary(i32 noundef 2, ptr noundef %21, ptr noundef %22, ptr noundef %23)
  store ptr %call10, ptr %node, align 8
  %24 = load ptr, ptr %lhs.addr, align 8
  %ty11 = getelementptr inbounds %struct.Node, ptr %24, i32 0, i32 2
  %25 = load ptr, ptr %ty11, align 16
  %26 = load ptr, ptr %node, align 8
  %ty12 = getelementptr inbounds %struct.Node, ptr %26, i32 0, i32 2
  store ptr %25, ptr %ty12, align 16
  %27 = load ptr, ptr %node, align 8
  store ptr %27, ptr %retval, align 8
  br label %return

if.end13:                                         ; preds = %if.end
  %28 = load ptr, ptr %lhs.addr, align 8
  %ty14 = getelementptr inbounds %struct.Node, ptr %28, i32 0, i32 2
  %29 = load ptr, ptr %ty14, align 16
  %base15 = getelementptr inbounds %struct.Type, ptr %29, i32 0, i32 6
  %30 = load ptr, ptr %base15, align 8
  %tobool = icmp ne ptr %30, null
  br i1 %tobool, label %land.lhs.true16, label %if.end28

land.lhs.true16:                                  ; preds = %if.end13
  %31 = load ptr, ptr %rhs.addr, align 8
  %ty17 = getelementptr inbounds %struct.Node, ptr %31, i32 0, i32 2
  %32 = load ptr, ptr %ty17, align 16
  %call18 = call zeroext i1 @is_integer(ptr noundef %32)
  br i1 %call18, label %if.then19, label %if.end28

if.then19:                                        ; preds = %land.lhs.true16
  %33 = load ptr, ptr %rhs.addr, align 8
  %34 = load ptr, ptr %lhs.addr, align 8
  %ty20 = getelementptr inbounds %struct.Node, ptr %34, i32 0, i32 2
  %35 = load ptr, ptr %ty20, align 16
  %base21 = getelementptr inbounds %struct.Type, ptr %35, i32 0, i32 6
  %36 = load ptr, ptr %base21, align 8
  %size = getelementptr inbounds %struct.Type, ptr %36, i32 0, i32 1
  %37 = load i32, ptr %size, align 4
  %conv = sext i32 %37 to i64
  %38 = load ptr, ptr %tok.addr, align 8
  %call22 = call ptr @new_long(i64 noundef %conv, ptr noundef %38)
  %39 = load ptr, ptr %tok.addr, align 8
  %call23 = call ptr @new_binary(i32 noundef 3, ptr noundef %33, ptr noundef %call22, ptr noundef %39)
  store ptr %call23, ptr %rhs.addr, align 8
  %40 = load ptr, ptr %rhs.addr, align 8
  call void @add_type(ptr noundef %40)
  %41 = load ptr, ptr %lhs.addr, align 8
  %42 = load ptr, ptr %rhs.addr, align 8
  %43 = load ptr, ptr %tok.addr, align 8
  %call25 = call ptr @new_binary(i32 noundef 2, ptr noundef %41, ptr noundef %42, ptr noundef %43)
  store ptr %call25, ptr %node24, align 8
  %44 = load ptr, ptr %lhs.addr, align 8
  %ty26 = getelementptr inbounds %struct.Node, ptr %44, i32 0, i32 2
  %45 = load ptr, ptr %ty26, align 16
  %46 = load ptr, ptr %node24, align 8
  %ty27 = getelementptr inbounds %struct.Node, ptr %46, i32 0, i32 2
  store ptr %45, ptr %ty27, align 16
  %47 = load ptr, ptr %node24, align 8
  store ptr %47, ptr %retval, align 8
  br label %return

if.end28:                                         ; preds = %land.lhs.true16, %if.end13
  %48 = load ptr, ptr %lhs.addr, align 8
  %ty29 = getelementptr inbounds %struct.Node, ptr %48, i32 0, i32 2
  %49 = load ptr, ptr %ty29, align 16
  %base30 = getelementptr inbounds %struct.Type, ptr %49, i32 0, i32 6
  %50 = load ptr, ptr %base30, align 8
  %tobool31 = icmp ne ptr %50, null
  br i1 %tobool31, label %land.lhs.true32, label %if.end46

land.lhs.true32:                                  ; preds = %if.end28
  %51 = load ptr, ptr %rhs.addr, align 8
  %ty33 = getelementptr inbounds %struct.Node, ptr %51, i32 0, i32 2
  %52 = load ptr, ptr %ty33, align 16
  %base34 = getelementptr inbounds %struct.Type, ptr %52, i32 0, i32 6
  %53 = load ptr, ptr %base34, align 8
  %tobool35 = icmp ne ptr %53, null
  br i1 %tobool35, label %if.then36, label %if.end46

if.then36:                                        ; preds = %land.lhs.true32
  %54 = load ptr, ptr %lhs.addr, align 8
  %55 = load ptr, ptr %rhs.addr, align 8
  %56 = load ptr, ptr %tok.addr, align 8
  %call38 = call ptr @new_binary(i32 noundef 2, ptr noundef %54, ptr noundef %55, ptr noundef %56)
  store ptr %call38, ptr %node37, align 8
  %57 = load ptr, ptr @ty_long, align 8
  %58 = load ptr, ptr %node37, align 8
  %ty39 = getelementptr inbounds %struct.Node, ptr %58, i32 0, i32 2
  store ptr %57, ptr %ty39, align 16
  %59 = load ptr, ptr %node37, align 8
  %60 = load ptr, ptr %lhs.addr, align 8
  %ty40 = getelementptr inbounds %struct.Node, ptr %60, i32 0, i32 2
  %61 = load ptr, ptr %ty40, align 16
  %base41 = getelementptr inbounds %struct.Type, ptr %61, i32 0, i32 6
  %62 = load ptr, ptr %base41, align 8
  %size42 = getelementptr inbounds %struct.Type, ptr %62, i32 0, i32 1
  %63 = load i32, ptr %size42, align 4
  %conv43 = sext i32 %63 to i64
  %64 = load ptr, ptr %tok.addr, align 8
  %call44 = call ptr @new_num(i64 noundef %conv43, ptr noundef %64)
  %65 = load ptr, ptr %tok.addr, align 8
  %call45 = call ptr @new_binary(i32 noundef 4, ptr noundef %59, ptr noundef %call44, ptr noundef %65)
  store ptr %call45, ptr %retval, align 8
  br label %return

if.end46:                                         ; preds = %land.lhs.true32, %if.end28
  %66 = load ptr, ptr %tok.addr, align 8
  call void (ptr, ptr, ...) @error_tok(ptr noundef %66, ptr noundef @.str.129) #9
  unreachable

return:                                           ; preds = %if.then36, %if.then19, %if.then5, %if.then
  %67 = load ptr, ptr %retval, align 8
  ret ptr %67
}