; Function Attrs: nounwind uwtable
define internal fastcc noalias noundef ptr @new_sub(ptr noundef %lhs, ptr noundef %rhs, ptr noundef %tok) unnamed_addr #0 {
entry:
  tail call void @add_type(ptr noundef %lhs) #13
  tail call void @add_type(ptr noundef %rhs) #13
  %ty = getelementptr inbounds %struct.Node, ptr %lhs, i64 0, i32 2
  %0 = load ptr, ptr %ty, align 16
  %call = tail call zeroext i1 @is_numeric(ptr noundef %0) #13
  br i1 %call, label %land.lhs.true, label %if.end

land.lhs.true:                                    ; preds = %entry
  %ty1 = getelementptr inbounds %struct.Node, ptr %rhs, i64 0, i32 2
  %1 = load ptr, ptr %ty1, align 16
  %call2 = tail call zeroext i1 @is_numeric(ptr noundef %1) #13
  br i1 %call2, label %if.then, label %if.end

if.then:                                          ; preds = %land.lhs.true
  %call.i.i = tail call noalias noundef dereferenceable_or_null(288) ptr @calloc(i64 noundef 1, i64 noundef 288) #14
  store i32 2, ptr %call.i.i, align 16
  %tok2.i.i = getelementptr inbounds %struct.Node, ptr %call.i.i, i64 0, i32 3
  store ptr %tok, ptr %tok2.i.i, align 8
  %lhs1.i = getelementptr inbounds %struct.Node, ptr %call.i.i, i64 0, i32 4
  store ptr %lhs, ptr %lhs1.i, align 16
  %rhs2.i = getelementptr inbounds %struct.Node, ptr %call.i.i, i64 0, i32 5
  store ptr %rhs, ptr %rhs2.i, align 8
  br label %return

if.end:                                           ; preds = %land.lhs.true, %entry
  %2 = load ptr, ptr %ty, align 16
  %base = getelementptr inbounds %struct.Type, ptr %2, i64 0, i32 6
  %3 = load ptr, ptr %base, align 8
  %4 = load i32, ptr %3, align 8
  %cmp = icmp eq i32 %4, 13
  br i1 %cmp, label %if.then5, label %land.lhs.true16

if.then5:                                         ; preds = %if.end
  %vla_size = getelementptr inbounds %struct.Type, ptr %3, i64 0, i32 11
  %5 = load ptr, ptr %vla_size, align 8
  %call.i.i38 = tail call noalias noundef dereferenceable_or_null(288) ptr @calloc(i64 noundef 1, i64 noundef 288) #14
  store i32 40, ptr %call.i.i38, align 16
  %tok2.i.i39 = getelementptr inbounds %struct.Node, ptr %call.i.i38, i64 0, i32 3
  store ptr %tok, ptr %tok2.i.i39, align 8
  %var1.i = getelementptr inbounds %struct.Node, ptr %call.i.i38, i64 0, i32 32
  store ptr %5, ptr %var1.i, align 16
  %call.i.i40 = tail call noalias noundef dereferenceable_or_null(288) ptr @calloc(i64 noundef 1, i64 noundef 288) #14
  store i32 3, ptr %call.i.i40, align 16
  %tok2.i.i41 = getelementptr inbounds %struct.Node, ptr %call.i.i40, i64 0, i32 3
  store ptr %tok, ptr %tok2.i.i41, align 8
  %lhs1.i42 = getelementptr inbounds %struct.Node, ptr %call.i.i40, i64 0, i32 4
  store ptr %rhs, ptr %lhs1.i42, align 16
  %rhs2.i43 = getelementptr inbounds %struct.Node, ptr %call.i.i40, i64 0, i32 5
  store ptr %call.i.i38, ptr %rhs2.i43, align 8
  tail call void @add_type(ptr noundef nonnull %call.i.i40) #13
  %call.i.i44 = tail call noalias noundef dereferenceable_or_null(288) ptr @calloc(i64 noundef 1, i64 noundef 288) #14
  store i32 2, ptr %call.i.i44, align 16
  %tok2.i.i45 = getelementptr inbounds %struct.Node, ptr %call.i.i44, i64 0, i32 3
  store ptr %tok, ptr %tok2.i.i45, align 8
  %lhs1.i46 = getelementptr inbounds %struct.Node, ptr %call.i.i44, i64 0, i32 4
  store ptr %lhs, ptr %lhs1.i46, align 16
  %rhs2.i47 = getelementptr inbounds %struct.Node, ptr %call.i.i44, i64 0, i32 5
  store ptr %call.i.i40, ptr %rhs2.i47, align 8
  %6 = load ptr, ptr %ty, align 16
  %ty12 = getelementptr inbounds %struct.Node, ptr %call.i.i44, i64 0, i32 2
  store ptr %6, ptr %ty12, align 16
  br label %return

land.lhs.true16:                                  ; preds = %if.end
  %ty17 = getelementptr inbounds %struct.Node, ptr %rhs, i64 0, i32 2
  %7 = load ptr, ptr %ty17, align 16
  %call18 = tail call zeroext i1 @is_integer(ptr noundef %7) #13
  %8 = load ptr, ptr %ty, align 16
  %base21 = getelementptr inbounds %struct.Type, ptr %8, i64 0, i32 6
  %9 = load ptr, ptr %base21, align 8
  br i1 %call18, label %if.then19, label %if.end28

if.then19:                                        ; preds = %land.lhs.true16
  %size = getelementptr inbounds %struct.Type, ptr %9, i64 0, i32 1
  %10 = load i32, ptr %size, align 4
  %conv = sext i32 %10 to i64
  %call.i.i48 = tail call noalias noundef dereferenceable_or_null(288) ptr @calloc(i64 noundef 1, i64 noundef 288) #14
  store i32 42, ptr %call.i.i48, align 16
  %tok2.i.i49 = getelementptr inbounds %struct.Node, ptr %call.i.i48, i64 0, i32 3
  store ptr %tok, ptr %tok2.i.i49, align 8
  %val1.i = getelementptr inbounds %struct.Node, ptr %call.i.i48, i64 0, i32 33
  store i64 %conv, ptr %val1.i, align 8
  %11 = load ptr, ptr @ty_long, align 8
  %ty.i = getelementptr inbounds %struct.Node, ptr %call.i.i48, i64 0, i32 2
  store ptr %11, ptr %ty.i, align 16
  %call.i.i50 = tail call noalias noundef dereferenceable_or_null(288) ptr @calloc(i64 noundef 1, i64 noundef 288) #14
  store i32 3, ptr %call.i.i50, align 16
  %tok2.i.i51 = getelementptr inbounds %struct.Node, ptr %call.i.i50, i64 0, i32 3
  store ptr %tok, ptr %tok2.i.i51, align 8
  %lhs1.i52 = getelementptr inbounds %struct.Node, ptr %call.i.i50, i64 0, i32 4
  store ptr %rhs, ptr %lhs1.i52, align 16
  %rhs2.i53 = getelementptr inbounds %struct.Node, ptr %call.i.i50, i64 0, i32 5
  store ptr %call.i.i48, ptr %rhs2.i53, align 8
  tail call void @add_type(ptr noundef nonnull %call.i.i50) #13
  %call.i.i54 = tail call noalias noundef dereferenceable_or_null(288) ptr @calloc(i64 noundef 1, i64 noundef 288) #14
  store i32 2, ptr %call.i.i54, align 16
  %tok2.i.i55 = getelementptr inbounds %struct.Node, ptr %call.i.i54, i64 0, i32 3
  store ptr %tok, ptr %tok2.i.i55, align 8
  %lhs1.i56 = getelementptr inbounds %struct.Node, ptr %call.i.i54, i64 0, i32 4
  store ptr %lhs, ptr %lhs1.i56, align 16
  %rhs2.i57 = getelementptr inbounds %struct.Node, ptr %call.i.i54, i64 0, i32 5
  store ptr %call.i.i50, ptr %rhs2.i57, align 8
  %12 = load ptr, ptr %ty, align 16
  %ty27 = getelementptr inbounds %struct.Node, ptr %call.i.i54, i64 0, i32 2
  store ptr %12, ptr %ty27, align 16
  br label %return

if.end28:                                         ; preds = %land.lhs.true16
  %tobool31.not = icmp eq ptr %9, null
  br i1 %tobool31.not, label %if.end46, label %land.lhs.true32

land.lhs.true32:                                  ; preds = %if.end28
  %13 = load ptr, ptr %ty17, align 16
  %base34 = getelementptr inbounds %struct.Type, ptr %13, i64 0, i32 6
  %14 = load ptr, ptr %base34, align 8
  %tobool35.not = icmp eq ptr %14, null
  br i1 %tobool35.not, label %if.end46, label %if.then36

if.then36:                                        ; preds = %land.lhs.true32
  %call.i.i58 = tail call noalias noundef dereferenceable_or_null(288) ptr @calloc(i64 noundef 1, i64 noundef 288) #14
  store i32 2, ptr %call.i.i58, align 16
  %tok2.i.i59 = getelementptr inbounds %struct.Node, ptr %call.i.i58, i64 0, i32 3
  store ptr %tok, ptr %tok2.i.i59, align 8
  %lhs1.i60 = getelementptr inbounds %struct.Node, ptr %call.i.i58, i64 0, i32 4
  store ptr %lhs, ptr %lhs1.i60, align 16
  %rhs2.i61 = getelementptr inbounds %struct.Node, ptr %call.i.i58, i64 0, i32 5
  store ptr %rhs, ptr %rhs2.i61, align 8
  %15 = load ptr, ptr @ty_long, align 8
  %ty39 = getelementptr inbounds %struct.Node, ptr %call.i.i58, i64 0, i32 2
  store ptr %15, ptr %ty39, align 16
  %size42 = getelementptr inbounds %struct.Type, ptr %9, i64 0, i32 1
  %16 = load i32, ptr %size42, align 4
  %conv43 = sext i32 %16 to i64
  %call.i.i62 = tail call noalias noundef dereferenceable_or_null(288) ptr @calloc(i64 noundef 1, i64 noundef 288) #14
  store i32 42, ptr %call.i.i62, align 16
  %tok2.i.i63 = getelementptr inbounds %struct.Node, ptr %call.i.i62, i64 0, i32 3
  store ptr %tok, ptr %tok2.i.i63, align 8
  %val1.i64 = getelementptr inbounds %struct.Node, ptr %call.i.i62, i64 0, i32 33
  store i64 %conv43, ptr %val1.i64, align 8
  %call.i.i65 = tail call noalias noundef dereferenceable_or_null(288) ptr @calloc(i64 noundef 1, i64 noundef 288) #14
  store i32 4, ptr %call.i.i65, align 16
  %tok2.i.i66 = getelementptr inbounds %struct.Node, ptr %call.i.i65, i64 0, i32 3
  store ptr %tok, ptr %tok2.i.i66, align 8
  %lhs1.i67 = getelementptr inbounds %struct.Node, ptr %call.i.i65, i64 0, i32 4
  store ptr %call.i.i58, ptr %lhs1.i67, align 16
  %rhs2.i68 = getelementptr inbounds %struct.Node, ptr %call.i.i65, i64 0, i32 5
  store ptr %call.i.i62, ptr %rhs2.i68, align 8
  br label %return

if.end46:                                         ; preds = %land.lhs.true32, %if.end28
  tail call void (ptr, ptr, ...) @error_tok(ptr noundef %tok, ptr noundef nonnull @.str.129) #16
  unreachable

return:                                           ; preds = %if.then36, %if.then19, %if.then5, %if.then
  %retval.0 = phi ptr [ %call.i.i, %if.then ], [ %call.i.i44, %if.then5 ], [ %call.i.i54, %if.then19 ], [ %call.i.i65, %if.then36 ]
  ret ptr %retval.0
}